; Function Attrs: mustprogress nounwind uwtable
define hidden noundef zeroext i1 @_ZN10JNIHandles16is_global_handleEP8_jobject(ptr noundef %0) local_unnamed_addr #1 align 2 {
  %2 = ptrtoint ptr %0 to i64
  %3 = and i64 %2, 3
  %4 = icmp eq i64 %3, 2
  br i1 %4, label %5, label %10

5:                                                ; preds = %1
  %6 = load ptr, ptr @_ZN10JNIHandles15_global_handlesE, align 8
  %7 = getelementptr inbounds i8, ptr %0, i64 -2
  %8 = tail call noundef i32 @_ZNK10OopStorage17allocation_statusEPKP7oopDesc(ptr noundef nonnull align 8 dereferenceable(126) %6, ptr noundef nonnull %7) #11
  %9 = icmp eq i32 %8, 2
  br label %10

10:                                               ; preds = %5, %1
  %11 = phi i1 [ false, %1 ], [ %9, %5 ]
  ret i1 %11
}